; Function Attrs: nounwind uwtable
define internal void @destroy_cb(ptr noundef %0, ptr noundef %1) #0 {
  %.not = icmp eq ptr %0, null
  br i1 %.not, label %.preheader, label %3

.preheader:                                       ; preds = %2, %.preheader
  br label %.preheader

3:                                                ; preds = %2
  %4 = load ptr, ptr %0, align 8, !tbaa !17
  %5 = getelementptr inbounds nuw i8, ptr %4, i64 56
  %6 = load ptr, ptr %5, align 8, !tbaa !18
  tail call void %6(ptr noundef nonnull %0, ptr noundef %1) #5
  ret void
}